target datalayout = "e-m:e-p270:32:32-p271:32:32-p272:64:64-i64:64-i128:128-f80:128-n8:16:32:64-S128"
target triple = "x86_64-pc-linux-gnu"

%struct._cmsPipeline_struct = type { ptr, i32, i32, ptr, ptr, ptr, ptr, ptr, ptr, i32 }

; Function Attrs: nounwind uwtable
define internal i32 @DecideLUTtypeA2B(double noundef %0, ptr noundef %1) #0 {
  %3 = alloca i32, align 4
  %4 = alloca double, align 8
  %5 = alloca ptr, align 8
  %6 = alloca ptr, align 8
  store double %0, ptr %4, align 8
  store ptr %1, ptr %5, align 8
  %7 = load ptr, ptr %5, align 8
  store ptr %7, ptr %6, align 8
  %8 = load double, ptr %4, align 8
  %9 = fcmp olt double %8, 4.000000e+00
  br i1 %9, label %10, label %17

10:                                               ; preds = %2
  %11 = load ptr, ptr %6, align 8
  %12 = getelementptr inbounds %struct._cmsPipeline_struct, ptr %11, i32 0, i32 9
  %13 = load i32, ptr %12, align 8
  %14 = icmp ne i32 %13, 0
  br i1 %14, label %15, label %16

15:                                               ; preds = %10
  store i32 1835430961, ptr %3, align 4
  br label %18

16:                                               ; preds = %10
  store i32 1835430962, ptr %3, align 4
  br label %18

17:                                               ; preds = %2
  store i32 1832993312, ptr %3, align 4
  br label %18

18:                                               ; preds = %17, %16, %15
  %19 = load i32, ptr %3, align 4
  ret i32 %19
}