; Function Attrs: mustprogress nofree norecurse nosync nounwind willreturn memory(argmem: read) uwtable
define internal range(i32 1832993312, 1835430963) i32 @DecideLUTtypeA2B(double noundef %0, ptr nocapture noundef readonly %1) #8 {
  %3 = fcmp olt double %0, 4.000000e+00
  br i1 %3, label %4, label %7

4:                                                ; preds = %2
  %5 = getelementptr inbounds i8, ptr %1, i64 64
  %6 = load i32, ptr %5, align 8
  %.not = icmp eq i32 %6, 0
  %. = select i1 %.not, i32 1835430962, i32 1835430961
  br label %7

7:                                                ; preds = %2, %4
  %.0 = phi i32 [ %., %4 ], [ 1832993312, %2 ]
  ret i32 %.0
}